target datalayout = "e-m:e-p270:32:32-p271:32:32-p272:64:64-i64:64-i128:128-f80:128-n8:16:32:64-S128"
target triple = "x86_64-pc-linux-gnu"

%struct.anon = type { ptr, [15 x [15 x ptr]], [15 x [15 x ptr]], [15 x [15 x ptr]], double, double, double, double, double, double, double }

; Function Attrs: nounwind uwtable
define internal void @FreeUserData(ptr noundef %0) #0 {
  %2 = alloca ptr, align 8
  %3 = alloca i32, align 4
  %4 = alloca i32, align 4
  store ptr %0, ptr %2, align 8, !tbaa !19
  call void @llvm.lifetime.start.p0(i64 4, ptr %3) #8
  call void @llvm.lifetime.start.p0(i64 4, ptr %4) #8
  store i32 0, ptr %3, align 4, !tbaa !4
  br label %5

5:                                                ; preds = %44, %1
  %6 = load i32, ptr %3, align 4, !tbaa !4
  %7 = icmp slt i32 %6, 15
  br i1 %7, label %8, label %47

8:                                                ; preds = %5
  store i32 0, ptr %4, align 4, !tbaa !4
  br label %9

9:                                                ; preds = %40, %8
  %10 = load i32, ptr %4, align 4, !tbaa !4
  %11 = icmp slt i32 %10, 15
  br i1 %11, label %12, label %43

12:                                               ; preds = %9
  %13 = load ptr, ptr %2, align 8, !tbaa !19
  %14 = getelementptr inbounds nuw %struct.anon, ptr %13, i32 0, i32 1
  %15 = load i32, ptr %3, align 4, !tbaa !4
  %16 = sext i32 %15 to i64
  %17 = getelementptr inbounds [15 x [15 x ptr]], ptr %14, i64 0, i64 %16
  %18 = load i32, ptr %4, align 4, !tbaa !4
  %19 = sext i32 %18 to i64
  %20 = getelementptr inbounds [15 x ptr], ptr %17, i64 0, i64 %19
  %21 = load ptr, ptr %20, align 8, !tbaa !32
  call void @SUNDlsMat_destroyMat(ptr noundef %21)
  %22 = load ptr, ptr %2, align 8, !tbaa !19
  %23 = getelementptr inbounds nuw %struct.anon, ptr %22, i32 0, i32 2
  %24 = load i32, ptr %3, align 4, !tbaa !4
  %25 = sext i32 %24 to i64
  %26 = getelementptr inbounds [15 x [15 x ptr]], ptr %23, i64 0, i64 %25
  %27 = load i32, ptr %4, align 4, !tbaa !4
  %28 = sext i32 %27 to i64
  %29 = getelementptr inbounds [15 x ptr], ptr %26, i64 0, i64 %28
  %30 = load ptr, ptr %29, align 8, !tbaa !32
  call void @SUNDlsMat_destroyMat(ptr noundef %30)
  %31 = load ptr, ptr %2, align 8, !tbaa !19
  %32 = getelementptr inbounds nuw %struct.anon, ptr %31, i32 0, i32 3
  %33 = load i32, ptr %3, align 4, !tbaa !4
  %34 = sext i32 %33 to i64
  %35 = getelementptr inbounds [15 x [15 x ptr]], ptr %32, i64 0, i64 %34
  %36 = load i32, ptr %4, align 4, !tbaa !4
  %37 = sext i32 %36 to i64
  %38 = getelementptr inbounds [15 x ptr], ptr %35, i64 0, i64 %37
  %39 = load ptr, ptr %38, align 8, !tbaa !34
  call void @SUNDlsMat_destroyArray(ptr noundef %39)
  br label %40

40:                                               ; preds = %12
  %41 = load i32, ptr %4, align 4, !tbaa !4
  %42 = add nsw i32 %41, 1
  store i32 %42, ptr %4, align 4, !tbaa !4
  br label %9

43:                                               ; preds = %9
  br label %44

44:                                               ; preds = %43
  %45 = load i32, ptr %3, align 4, !tbaa !4
  %46 = add nsw i32 %45, 1
  store i32 %46, ptr %3, align 4, !tbaa !4
  br label %5

47:                                               ; preds = %5
  %48 = load ptr, ptr %2, align 8, !tbaa !19
  %49 = getelementptr inbounds nuw %struct.anon, ptr %48, i32 0, i32 0
  %50 = load ptr, ptr %49, align 8, !tbaa !29
  call void @free(ptr noundef %50) #8
  %51 = load ptr, ptr %2, align 8, !tbaa !19
  call void @free(ptr noundef %51) #8
  call void @llvm.lifetime.end.p0(i64 4, ptr %4) #8
  call void @llvm.lifetime.end.p0(i64 4, ptr %3) #8
  ret void
}