; Function Attrs: nounwind uwtable
define internal fastcc void @FreeUserData(ptr noundef captures(none) %0) unnamed_addr #0 {
  %2 = getelementptr inbounds nuw i8, ptr %0, i64 8
  %3 = getelementptr inbounds nuw i8, ptr %0, i64 1808
  %4 = getelementptr inbounds nuw i8, ptr %0, i64 3608
  br label %.preheader

.preheader:                                       ; preds = %1, %12
  %indvars.iv18 = phi i64 [ 0, %1 ], [ %indvars.iv.next19, %12 ]
  br label %5

5:                                                ; preds = %.preheader, %5
  %indvars.iv = phi i64 [ 0, %.preheader ], [ %indvars.iv.next, %5 ]
  %6 = getelementptr inbounds nuw [15 x [15 x ptr]], ptr %2, i64 0, i64 %indvars.iv18, i64 %indvars.iv
  %7 = load ptr, ptr %6, align 8, !tbaa !10
  tail call void @SUNDlsMat_destroyMat(ptr noundef %7) #11
  %8 = getelementptr inbounds nuw [15 x [15 x ptr]], ptr %3, i64 0, i64 %indvars.iv18, i64 %indvars.iv
  %9 = load ptr, ptr %8, align 8, !tbaa !10
  tail call void @SUNDlsMat_destroyMat(ptr noundef %9) #11
  %10 = getelementptr inbounds nuw [15 x [15 x ptr]], ptr %4, i64 0, i64 %indvars.iv18, i64 %indvars.iv
  %11 = load ptr, ptr %10, align 8, !tbaa !12
  tail call void @SUNDlsMat_destroyArray(ptr noundef %11) #11
  %indvars.iv.next = add nuw nsw i64 %indvars.iv, 1
  %exitcond.not = icmp eq i64 %indvars.iv.next, 15
  br i1 %exitcond.not, label %12, label %5

12:                                               ; preds = %5
  %indvars.iv.next19 = add nuw nsw i64 %indvars.iv18, 1
  %exitcond21.not = icmp eq i64 %indvars.iv.next19, 15
  br i1 %exitcond21.not, label %13, label %.preheader

13:                                               ; preds = %12
  %14 = load ptr, ptr %0, align 8, !tbaa !14
  tail call void @free(ptr noundef %14) #11
  tail call void @free(ptr noundef nonnull %0) #11
  ret void
}